target datalayout = "e-m:e-p270:32:32-p271:32:32-p272:64:64-i64:64-i128:128-f80:128-n8:16:32:64-S128"
target triple = "x86_64-unknown-linux-gnu"

%"class.std::set.0" = type { %"class.std::_Rb_tree.1" }
%"class.std::_Rb_tree.1" = type { %"struct.std::_Rb_tree<QuantLib::Observer *, QuantLib::Observer *, std::_Identity<QuantLib::Observer *>, std::less<QuantLib::Observer *>>::_Rb_tree_impl" }
%"struct.std::_Rb_tree<QuantLib::Observer *, QuantLib::Observer *, std::_Identity<QuantLib::Observer *>, std::less<QuantLib::Observer *>>::_Rb_tree_impl" = type { [8 x i8], %"struct.std::_Rb_tree_header" }
%"struct.std::_Rb_tree_header" = type { %"struct.std::_Rb_tree_node_base", i64 }
%"struct.std::_Rb_tree_node_base" = type { i32, ptr, ptr, ptr }
%"class.std::set" = type { %"class.std::_Rb_tree" }
%"class.std::_Rb_tree" = type { %"struct.std::_Rb_tree<boost::shared_ptr<QuantLib::Observable>, boost::shared_ptr<QuantLib::Observable>, std::_Identity<boost::shared_ptr<QuantLib::Observable>>, std::less<boost::shared_ptr<QuantLib::Observable>>>::_Rb_tree_impl" }
%"struct.std::_Rb_tree<boost::shared_ptr<QuantLib::Observable>, boost::shared_ptr<QuantLib::Observable>, std::_Identity<boost::shared_ptr<QuantLib::Observable>>, std::less<boost::shared_ptr<QuantLib::Observable>>>::_Rb_tree_impl" = type { [8 x i8], %"struct.std::_Rb_tree_header" }
%"class.boost::detail::shared_count" = type { ptr }
%"class.QuantLib::Observable" = type { ptr, %"class.std::set.0" }
%"class.QuantLib::Observer" = type { ptr, %"class.std::set" }
%"class.QuantLib::Date" = type { i64 }
%"class.std::map" = type { %"class.std::_Rb_tree.10" }
%"class.std::_Rb_tree.10" = type { %"struct.std::_Rb_tree<std::__cxx11::basic_string<char>, std::pair<const std::__cxx11::basic_string<char>, boost::any>, std::_Select1st<std::pair<const std::__cxx11::basic_string<char>, boost::any>>, std::less<std::__cxx11::basic_string<char>>>::_Rb_tree_impl" }
%"struct.std::_Rb_tree<std::__cxx11::basic_string<char>, std::pair<const std::__cxx11::basic_string<char>, boost::any>, std::_Select1st<std::pair<const std::__cxx11::basic_string<char>, boost::any>>, std::less<std::__cxx11::basic_string<char>>>::_Rb_tree_impl" = type { [8 x i8], %"struct.std::_Rb_tree_header" }
%"class.boost::shared_ptr.16" = type { ptr, %"class.boost::detail::shared_count" }
%"class.boost::shared_ptr.17" = type { ptr, %"class.boost::detail::shared_count" }
%"class.QuantLib::Option::arguments" = type { %"class.QuantLib::PricingEngine::arguments", %"class.boost::shared_ptr.16", %"class.boost::shared_ptr.17" }
%"class.QuantLib::PricingEngine::arguments" = type { ptr }
%"class.QuantLib::AnalyticPartialTimeBarrierOptionEngine" = type { %"class.QuantLib::PartialTimeBarrierOption::engine", %"class.boost::shared_ptr.23" }
%"class.QuantLib::PartialTimeBarrierOption::engine" = type { %"class.QuantLib::GenericEngine" }
%"class.QuantLib::GenericEngine" = type { %"class.QuantLib::PricingEngine", %"class.QuantLib::Observer", %"class.QuantLib::PartialTimeBarrierOption::arguments", %"class.QuantLib::OneAssetOption::results" }
%"class.QuantLib::PricingEngine" = type { %"class.QuantLib::Observable" }
%"class.QuantLib::PartialTimeBarrierOption::arguments" = type { %"class.QuantLib::Option::arguments", i32, i32, double, double, %"class.QuantLib::Date" }
%"class.QuantLib::OneAssetOption::results" = type { %"class.QuantLib::Instrument::results", %"class.QuantLib::Greeks", %"class.QuantLib::MoreGreeks" }
%"class.QuantLib::Instrument::results" = type { %"class.QuantLib::PricingEngine::results", double, double, %"class.QuantLib::Date", %"class.std::map" }
%"class.QuantLib::PricingEngine::results" = type { ptr }
%"class.QuantLib::Greeks" = type { %"class.QuantLib::PricingEngine::results", double, double, double, double, double, double }
%"class.QuantLib::MoreGreeks" = type { %"class.QuantLib::PricingEngine::results", double, double, double, double, double }
%"class.boost::shared_ptr.23" = type { ptr, %"class.boost::detail::shared_count" }

@.str.22 = private unnamed_addr constant [8 x i8] c"px != 0\00", align 1
@.str.23 = private unnamed_addr constant [102 x i8] c"generated/home/dtcxzyw/WorkSpace/SDK/vcpkg/installed/x64-linux/include/boost/smart_ptr/shared_ptr.hpp\00", align 1

; Function Attrs: mustprogress uwtable
define linkonce_odr noundef ptr @_ZNK5boost10shared_ptrIN8QuantLib30GeneralizedBlackScholesProcessEEptEv(ptr noundef nonnull align 8 dereferenceable(16) %this) #2 comdat align 2 {
entry:
  %this.addr = alloca ptr, align 8
  store ptr %this, ptr %this.addr, align 8, !tbaa !3
  %this1 = load ptr, ptr %this.addr, align 8
  %px = getelementptr inbounds nuw %"class.boost::shared_ptr.23", ptr %this1, i32 0, i32 0
  %0 = load ptr, ptr %px, align 8, !tbaa !24
  %cmp = icmp ne ptr %0, null
  %lnot = xor i1 %cmp, true
  %lnot2 = xor i1 %lnot, true
  %conv = zext i1 %lnot2 to i64
  %expval = call i64 @llvm.expect.i64(i64 %conv, i64 1)
  %tobool = icmp ne i64 %expval, 0
  br i1 %tobool, label %cond.true, label %cond.false

cond.true:                                        ; preds = %entry
  br label %cond.end

cond.false:                                       ; preds = %entry
  call void @_ZN5boost16assertion_failedEPKcS1_S1_l(ptr noundef @.str.22, ptr noundef @__PRETTY_FUNCTION__._ZNK5boost10shared_ptrIN8QuantLib30GeneralizedBlackScholesProcessEEptEv, ptr noundef @.str.23, i64 noundef 784)
  br label %cond.end

cond.end:                                         ; preds = %cond.false, %cond.true
  %px3 = getelementptr inbounds nuw %"class.boost::shared_ptr.23", ptr %this1, i32 0, i32 0
  %1 = load ptr, ptr %px3, align 8, !tbaa !24
  ret ptr %1
}

; Function Attrs: mustprogress nounwind uwtable
define noundef double @_ZNK8QuantLib38AnalyticPartialTimeBarrierOptionEngine7barrierEv(ptr noundef nonnull align 8 dereferenceable(384) %this) #1 align 2 {
entry:
  %this.addr = alloca ptr, align 8
  store ptr %this, ptr %this.addr, align 8, !tbaa !3
  %this1 = load ptr, ptr %this.addr, align 8
  %arguments_ = getelementptr inbounds nuw %"class.QuantLib::GenericEngine", ptr %this1, i32 0, i32 2
  %barrier = getelementptr inbounds nuw %"class.QuantLib::PartialTimeBarrierOption::arguments", ptr %arguments_, i32 0, i32 3
  %0 = load double, ptr %barrier, align 8, !tbaa !78
  ret double %0
}

; Function Attrs: mustprogress uwtable
define noundef double @_ZNK8QuantLib38AnalyticPartialTimeBarrierOptionEngine10underlyingEv(ptr noundef nonnull align 8 dereferenceable(384) %this) #2 align 2 {
entry:
  %this.addr = alloca ptr, align 8
  store ptr %this, ptr %this.addr, align 8, !tbaa !3
  %this1 = load ptr, ptr %this.addr, align 8
  %process_ = getelementptr inbounds nuw %"class.QuantLib::AnalyticPartialTimeBarrierOptionEngine", ptr %this1, i32 0, i32 1
  %call = call noundef ptr @_ZNK5boost10shared_ptrIN8QuantLib30GeneralizedBlackScholesProcessEEptEv(ptr noundef nonnull align 8 dereferenceable(16) %process_)
  %vtable = load ptr, ptr %call, align 8, !tbaa !20
  %vfn = getelementptr inbounds ptr, ptr %vtable, i64 15
  %0 = load ptr, ptr %vfn, align 8
  %call2 = call noundef double %0(ptr noundef nonnull align 8 dereferenceable(250) %call)
  ret double %call2
}

; Function Attrs: mustprogress uwtable
define noundef double @_ZNK8QuantLib38AnalyticPartialTimeBarrierOptionEngine14coverEventTimeEv(ptr noundef nonnull align 8 dereferenceable(384) %this) #2 align 2 {
entry:
  %this.addr = alloca ptr, align 8
  store ptr %this, ptr %this.addr, align 8, !tbaa !3
  %this1 = load ptr, ptr %this.addr, align 8
  %process_ = getelementptr inbounds nuw %"class.QuantLib::AnalyticPartialTimeBarrierOptionEngine", ptr %this1, i32 0, i32 1
  %call = call noundef ptr @_ZNK5boost10shared_ptrIN8QuantLib30GeneralizedBlackScholesProcessEEptEv(ptr noundef nonnull align 8 dereferenceable(16) %process_)
  %arguments_ = getelementptr inbounds nuw %"class.QuantLib::GenericEngine", ptr %this1, i32 0, i32 2
  %coverEventDate = getelementptr inbounds nuw %"class.QuantLib::PartialTimeBarrierOption::arguments", ptr %arguments_, i32 0, i32 5
  %vtable = load ptr, ptr %call, align 8, !tbaa !20
  %vfn = getelementptr inbounds ptr, ptr %vtable, i64 14
  %0 = load ptr, ptr %vfn, align 8
  %call2 = call noundef double %0(ptr noundef nonnull align 8 dereferenceable(250) %call, ptr noundef nonnull align 8 dereferenceable(8) %coverEventDate)
  ret double %call2
}

; Function Attrs: mustprogress uwtable
define noundef double @_ZNK8QuantLib38AnalyticPartialTimeBarrierOptionEngine2e1Ev(ptr noundef nonnull align 8 dereferenceable(384) %this) #2 align 2 {
entry:
  %this.addr = alloca ptr, align 8
  %b = alloca double, align 8
  %T1 = alloca double, align 8
  %vol = alloca double, align 8
  store ptr %this, ptr %this.addr, align 8, !tbaa !3
  %this1 = load ptr, ptr %this.addr, align 8
  call void @llvm.lifetime.start.p0(i64 8, ptr %b) #15
  %call = call noundef double @_ZNK8QuantLib38AnalyticPartialTimeBarrierOptionEngine12riskFreeRateEv(ptr noundef nonnull align 8 dereferenceable(384) %this1)
  %call2 = call noundef double @_ZNK8QuantLib38AnalyticPartialTimeBarrierOptionEngine13dividendYieldEv(ptr noundef nonnull align 8 dereferenceable(384) %this1)
  %sub = fsub double %call, %call2
  store double %sub, ptr %b, align 8, !tbaa !27
  call void @llvm.lifetime.start.p0(i64 8, ptr %T1) #15
  %call3 = call noundef double @_ZNK8QuantLib38AnalyticPartialTimeBarrierOptionEngine14coverEventTimeEv(ptr noundef nonnull align 8 dereferenceable(384) %this1)
  store double %call3, ptr %T1, align 8, !tbaa !27
  call void @llvm.lifetime.start.p0(i64 8, ptr %vol) #15
  %0 = load double, ptr %T1, align 8, !tbaa !27
  %call4 = call noundef double @_ZNK8QuantLib38AnalyticPartialTimeBarrierOptionEngine10volatilityEd(ptr noundef nonnull align 8 dereferenceable(384) %this1, double noundef %0)
  store double %call4, ptr %vol, align 8, !tbaa !27
  %call5 = call noundef double @_ZNK8QuantLib38AnalyticPartialTimeBarrierOptionEngine10underlyingEv(ptr noundef nonnull align 8 dereferenceable(384) %this1)
  %call6 = call noundef double @_ZNK8QuantLib38AnalyticPartialTimeBarrierOptionEngine7barrierEv(ptr noundef nonnull align 8 dereferenceable(384) %this1)
  %div = fdiv double %call5, %call6
  %call7 = call double @log(double noundef %div) #15, !tbaa !76
  %1 = load double, ptr %b, align 8, !tbaa !27
  %2 = load double, ptr %vol, align 8, !tbaa !27
  %3 = load double, ptr %vol, align 8, !tbaa !27
  %mul = fmul double %2, %3
  %div8 = fdiv double %mul, 2.000000e+00
  %add = fadd double %1, %div8
  %4 = load double, ptr %T1, align 8, !tbaa !27
  %5 = call double @llvm.fmuladd.f64(double %add, double %4, double %call7)
  %6 = load double, ptr %T1, align 8, !tbaa !27
  %call10 = call double @sqrt(double noundef %6) #15, !tbaa !76
  %7 = load double, ptr %vol, align 8, !tbaa !27
  %mul11 = fmul double %call10, %7
  %div12 = fdiv double %5, %mul11
  call void @llvm.lifetime.end.p0(i64 8, ptr %vol) #15
  call void @llvm.lifetime.end.p0(i64 8, ptr %T1) #15
  call void @llvm.lifetime.end.p0(i64 8, ptr %b) #15
  ret double %div12
}