; Function Attrs: mustprogress uwtable
define noundef double @_ZNK8QuantLib38AnalyticPartialTimeBarrierOptionEngine2e1Ev(ptr noundef nonnull align 8 dereferenceable(384) %this) local_unnamed_addr #9 align 2 {
entry:
  %call = tail call noundef double @_ZNK8QuantLib38AnalyticPartialTimeBarrierOptionEngine12riskFreeRateEv(ptr noundef nonnull align 8 dereferenceable(384) %this)
  %call2 = tail call noundef double @_ZNK8QuantLib38AnalyticPartialTimeBarrierOptionEngine13dividendYieldEv(ptr noundef nonnull align 8 dereferenceable(384) %this)
  %process_.i = getelementptr inbounds nuw i8, ptr %this, i64 368
  %0 = load ptr, ptr %process_.i, align 8, !tbaa !48
  %cmp.not.i.i = icmp eq ptr %0, null
  br i1 %cmp.not.i.i, label %cond.false.i.i, label %_ZNK8QuantLib38AnalyticPartialTimeBarrierOptionEngine14coverEventTimeEv.exit, !prof !66

cond.false.i.i:                                   ; preds = %entry
  tail call void @_ZN5boost16assertion_failedEPKcS1_S1_l(ptr noundef nonnull @.str.22, ptr noundef nonnull @__PRETTY_FUNCTION__._ZNK5boost10shared_ptrIN8QuantLib30GeneralizedBlackScholesProcessEEptEv, ptr noundef nonnull @.str.23, i64 noundef 784)
  %.pre.i.i = load ptr, ptr %process_.i, align 8, !tbaa !48
  br label %_ZNK8QuantLib38AnalyticPartialTimeBarrierOptionEngine14coverEventTimeEv.exit

_ZNK8QuantLib38AnalyticPartialTimeBarrierOptionEngine14coverEventTimeEv.exit: ; preds = %entry, %cond.false.i.i
  %1 = phi ptr [ %0, %entry ], [ %.pre.i.i, %cond.false.i.i ]
  %coverEventDate.i = getelementptr inbounds nuw i8, ptr %this, i64 176
  %vtable.i = load ptr, ptr %1, align 8, !tbaa !33
  %vfn.i = getelementptr inbounds i8, ptr %vtable.i, i64 112
  %2 = load ptr, ptr %vfn.i, align 8
  %call2.i = tail call noundef double %2(ptr noundef nonnull align 8 dereferenceable(250) %1, ptr noundef nonnull align 8 dereferenceable(8) %coverEventDate.i)
  %call4 = tail call noundef double @_ZNK8QuantLib38AnalyticPartialTimeBarrierOptionEngine10volatilityEd(ptr noundef nonnull align 8 dereferenceable(384) %this, double noundef %call2.i)
  %3 = load ptr, ptr %process_.i, align 8, !tbaa !48
  %cmp.not.i.i6 = icmp eq ptr %3, null
  br i1 %cmp.not.i.i6, label %cond.false.i.i10, label %_ZNK8QuantLib38AnalyticPartialTimeBarrierOptionEngine10underlyingEv.exit, !prof !66

cond.false.i.i10:                                 ; preds = %_ZNK8QuantLib38AnalyticPartialTimeBarrierOptionEngine14coverEventTimeEv.exit
  tail call void @_ZN5boost16assertion_failedEPKcS1_S1_l(ptr noundef nonnull @.str.22, ptr noundef nonnull @__PRETTY_FUNCTION__._ZNK5boost10shared_ptrIN8QuantLib30GeneralizedBlackScholesProcessEEptEv, ptr noundef nonnull @.str.23, i64 noundef 784)
  %.pre.i.i11 = load ptr, ptr %process_.i, align 8, !tbaa !48
  br label %_ZNK8QuantLib38AnalyticPartialTimeBarrierOptionEngine10underlyingEv.exit

_ZNK8QuantLib38AnalyticPartialTimeBarrierOptionEngine10underlyingEv.exit: ; preds = %_ZNK8QuantLib38AnalyticPartialTimeBarrierOptionEngine14coverEventTimeEv.exit, %cond.false.i.i10
  %4 = phi ptr [ %3, %_ZNK8QuantLib38AnalyticPartialTimeBarrierOptionEngine14coverEventTimeEv.exit ], [ %.pre.i.i11, %cond.false.i.i10 ]
  %sub = fsub double %call, %call2
  %vtable.i7 = load ptr, ptr %4, align 8, !tbaa !33
  %vfn.i8 = getelementptr inbounds i8, ptr %vtable.i7, i64 120
  %5 = load ptr, ptr %vfn.i8, align 8
  %call2.i9 = tail call noundef double %5(ptr noundef nonnull align 8 dereferenceable(250) %4)
  %barrier.i = getelementptr inbounds nuw i8, ptr %this, i64 160
  %6 = load double, ptr %barrier.i, align 8, !tbaa !96
  %div = fdiv double %call2.i9, %6
  %call7 = tail call double @log(double noundef %div) #30, !tbaa !94
  %mul = fmul double %call4, %call4
  %div8 = fmul double %mul, 5.000000e-01
  %add = fadd double %sub, %div8
  %7 = tail call double @llvm.fmuladd.f64(double %add, double %call2.i, double %call7)
  %call10 = tail call double @sqrt(double noundef %call2.i) #30, !tbaa !94
  %mul11 = fmul double %call4, %call10
  %div12 = fdiv double %7, %mul11
  ret double %div12
}